target datalayout = "e-m:e-p270:32:32-p271:32:32-p272:64:64-i64:64-i128:128-f80:128-n8:16:32:64-S128"
target triple = "x86_64-unknown-linux-gnu"

%struct.USBWacomState = type { %struct.USBDevice, ptr, ptr, i32, i32, i32, i32, i32, i32, i32, i32, i8, i32 }
%struct.USBDevice = type { %struct.DeviceState, ptr, ptr, ptr, ptr, i32, ptr, ptr, i32, i32, i8, [32 x i8], i32, i8, i32, [8 x i8], [4096 x i8], i32, i32, i32, i32, %struct.USBEndpoint, [15 x %struct.USBEndpoint], [15 x %struct.USBEndpoint], %struct.anon, ptr, ptr, i32, i32, [16 x i32], ptr, [16 x ptr] }
%struct.DeviceState = type { %struct.Object, ptr, ptr, i8, i8, i64, ptr, i32, i8, ptr, %struct.NamedGPIOListHead, %struct.NamedClockListHead, %struct.BusStateHead, i32, i32, i32, %struct.ResettableState, ptr, %struct.MemReentrancyGuard }
%struct.Object = type { ptr, ptr, ptr, i32, ptr }
%struct.NamedGPIOListHead = type { ptr }
%struct.NamedClockListHead = type { ptr }
%struct.BusStateHead = type { ptr }
%struct.ResettableState = type { i32, i8, i8 }
%struct.MemReentrancyGuard = type { i8 }
%struct.USBEndpoint = type { i8, i8, i8, i8, i32, i32, i8, i8, ptr, %union.anon }
%union.anon = type { %struct.QTailQLink }
%struct.QTailQLink = type { ptr, ptr }
%struct.anon = type { ptr }

@.str.15 = private unnamed_addr constant [23 x i8] c"QEMU PenPartner tablet\00", align 1

; Function Attrs: nounwind sspstrong uwtable
define internal i32 @int_clamp(i32 noundef %val, i32 noundef %vmin, i32 noundef %vmax) #0 {
entry:
  %retval = alloca i32, align 4
  %val.addr = alloca i32, align 4
  %vmin.addr = alloca i32, align 4
  %vmax.addr = alloca i32, align 4
  store i32 %val, ptr %val.addr, align 4
  store i32 %vmin, ptr %vmin.addr, align 4
  store i32 %vmax, ptr %vmax.addr, align 4
  %0 = load i32, ptr %val.addr, align 4
  %1 = load i32, ptr %vmin.addr, align 4
  %cmp = icmp slt i32 %0, %1
  br i1 %cmp, label %if.then, label %if.else

if.then:                                          ; preds = %entry
  %2 = load i32, ptr %vmin.addr, align 4
  store i32 %2, ptr %retval, align 4
  br label %return

if.else:                                          ; preds = %entry
  %3 = load i32, ptr %val.addr, align 4
  %4 = load i32, ptr %vmax.addr, align 4
  %cmp1 = icmp sgt i32 %3, %4
  br i1 %cmp1, label %if.then2, label %if.else3

if.then2:                                         ; preds = %if.else
  %5 = load i32, ptr %vmax.addr, align 4
  store i32 %5, ptr %retval, align 4
  br label %return

if.else3:                                         ; preds = %if.else
  %6 = load i32, ptr %val.addr, align 4
  store i32 %6, ptr %retval, align 4
  br label %return

return:                                           ; preds = %if.else3, %if.then2, %if.then
  %7 = load i32, ptr %retval, align 4
  ret i32 %7
}

; Function Attrs: nounwind sspstrong uwtable
define internal i32 @usb_mouse_poll(ptr noundef %s, ptr noundef %buf, i32 noundef %len) #0 {
entry:
  %s.addr = alloca ptr, align 8
  %buf.addr = alloca ptr, align 8
  %len.addr = alloca i32, align 4
  %dx = alloca i32, align 4
  %dy = alloca i32, align 4
  %dz = alloca i32, align 4
  %b = alloca i32, align 4
  %l = alloca i32, align 4
  store ptr %s, ptr %s.addr, align 8
  store ptr %buf, ptr %buf.addr, align 8
  store i32 %len, ptr %len.addr, align 4
  %0 = load ptr, ptr %s.addr, align 8
  %mouse_grabbed = getelementptr inbounds %struct.USBWacomState, ptr %0, i32 0, i32 9
  %1 = load i32, ptr %mouse_grabbed, align 8
  %tobool = icmp ne i32 %1, 0
  br i1 %tobool, label %if.end, label %if.then

if.then:                                          ; preds = %entry
  %2 = load ptr, ptr %s.addr, align 8
  %call = call ptr @qemu_add_mouse_event_handler(ptr noundef @usb_mouse_event, ptr noundef %2, i32 noundef 0, ptr noundef @.str.15)
  %3 = load ptr, ptr %s.addr, align 8
  %eh_entry = getelementptr inbounds %struct.USBWacomState, ptr %3, i32 0, i32 2
  store ptr %call, ptr %eh_entry, align 8
  %4 = load ptr, ptr %s.addr, align 8
  %eh_entry1 = getelementptr inbounds %struct.USBWacomState, ptr %4, i32 0, i32 2
  %5 = load ptr, ptr %eh_entry1, align 8
  call void @qemu_activate_mouse_event_handler(ptr noundef %5)
  %6 = load ptr, ptr %s.addr, align 8
  %mouse_grabbed2 = getelementptr inbounds %struct.USBWacomState, ptr %6, i32 0, i32 9
  store i32 1, ptr %mouse_grabbed2, align 8
  br label %if.end

if.end:                                           ; preds = %if.then, %entry
  %7 = load ptr, ptr %s.addr, align 8
  %dx3 = getelementptr inbounds %struct.USBWacomState, ptr %7, i32 0, i32 3
  %8 = load i32, ptr %dx3, align 8
  %call4 = call i32 @int_clamp(i32 noundef %8, i32 noundef -128, i32 noundef 127)
  store i32 %call4, ptr %dx, align 4
  %9 = load ptr, ptr %s.addr, align 8
  %dy5 = getelementptr inbounds %struct.USBWacomState, ptr %9, i32 0, i32 4
  %10 = load i32, ptr %dy5, align 4
  %call6 = call i32 @int_clamp(i32 noundef %10, i32 noundef -128, i32 noundef 127)
  store i32 %call6, ptr %dy, align 4
  %11 = load ptr, ptr %s.addr, align 8
  %dz7 = getelementptr inbounds %struct.USBWacomState, ptr %11, i32 0, i32 5
  %12 = load i32, ptr %dz7, align 8
  %call8 = call i32 @int_clamp(i32 noundef %12, i32 noundef -128, i32 noundef 127)
  store i32 %call8, ptr %dz, align 4
  %13 = load i32, ptr %dx, align 4
  %14 = load ptr, ptr %s.addr, align 8
  %dx9 = getelementptr inbounds %struct.USBWacomState, ptr %14, i32 0, i32 3
  %15 = load i32, ptr %dx9, align 8
  %sub = sub i32 %15, %13
  store i32 %sub, ptr %dx9, align 8
  %16 = load i32, ptr %dy, align 4
  %17 = load ptr, ptr %s.addr, align 8
  %dy10 = getelementptr inbounds %struct.USBWacomState, ptr %17, i32 0, i32 4
  %18 = load i32, ptr %dy10, align 4
  %sub11 = sub i32 %18, %16
  store i32 %sub11, ptr %dy10, align 4
  %19 = load i32, ptr %dz, align 4
  %20 = load ptr, ptr %s.addr, align 8
  %dz12 = getelementptr inbounds %struct.USBWacomState, ptr %20, i32 0, i32 5
  %21 = load i32, ptr %dz12, align 8
  %sub13 = sub i32 %21, %19
  store i32 %sub13, ptr %dz12, align 8
  store i32 0, ptr %b, align 4
  %22 = load ptr, ptr %s.addr, align 8
  %buttons_state = getelementptr inbounds %struct.USBWacomState, ptr %22, i32 0, i32 6
  %23 = load i32, ptr %buttons_state, align 4
  %and = and i32 %23, 1
  %tobool14 = icmp ne i32 %and, 0
  br i1 %tobool14, label %if.then15, label %if.end16

if.then15:                                        ; preds = %if.end
  %24 = load i32, ptr %b, align 4
  %or = or i32 %24, 1
  store i32 %or, ptr %b, align 4
  br label %if.end16

if.end16:                                         ; preds = %if.then15, %if.end
  %25 = load ptr, ptr %s.addr, align 8
  %buttons_state17 = getelementptr inbounds %struct.USBWacomState, ptr %25, i32 0, i32 6
  %26 = load i32, ptr %buttons_state17, align 4
  %and18 = and i32 %26, 2
  %tobool19 = icmp ne i32 %and18, 0
  br i1 %tobool19, label %if.then20, label %if.end22

if.then20:                                        ; preds = %if.end16
  %27 = load i32, ptr %b, align 4
  %or21 = or i32 %27, 2
  store i32 %or21, ptr %b, align 4
  br label %if.end22

if.end22:                                         ; preds = %if.then20, %if.end16
  %28 = load ptr, ptr %s.addr, align 8
  %buttons_state23 = getelementptr inbounds %struct.USBWacomState, ptr %28, i32 0, i32 6
  %29 = load i32, ptr %buttons_state23, align 4
  %and24 = and i32 %29, 4
  %tobool25 = icmp ne i32 %and24, 0
  br i1 %tobool25, label %if.then26, label %if.end28

if.then26:                                        ; preds = %if.end22
  %30 = load i32, ptr %b, align 4
  %or27 = or i32 %30, 4
  store i32 %or27, ptr %b, align 4
  br label %if.end28

if.end28:                                         ; preds = %if.then26, %if.end22
  %31 = load i32, ptr %b, align 4
  %conv = trunc i32 %31 to i8
  %32 = load ptr, ptr %buf.addr, align 8
  %arrayidx = getelementptr i8, ptr %32, i64 0
  store i8 %conv, ptr %arrayidx, align 1
  %33 = load i32, ptr %dx, align 4
  %conv29 = trunc i32 %33 to i8
  %34 = load ptr, ptr %buf.addr, align 8
  %arrayidx30 = getelementptr i8, ptr %34, i64 1
  store i8 %conv29, ptr %arrayidx30, align 1
  %35 = load i32, ptr %dy, align 4
  %conv31 = trunc i32 %35 to i8
  %36 = load ptr, ptr %buf.addr, align 8
  %arrayidx32 = getelementptr i8, ptr %36, i64 2
  store i8 %conv31, ptr %arrayidx32, align 1
  store i32 3, ptr %l, align 4
  %37 = load i32, ptr %len.addr, align 4
  %cmp = icmp sge i32 %37, 4
  br i1 %cmp, label %if.then34, label %if.end37

if.then34:                                        ; preds = %if.end28
  %38 = load i32, ptr %dz, align 4
  %conv35 = trunc i32 %38 to i8
  %39 = load ptr, ptr %buf.addr, align 8
  %arrayidx36 = getelementptr i8, ptr %39, i64 3
  store i8 %conv35, ptr %arrayidx36, align 1
  store i32 4, ptr %l, align 4
  br label %if.end37

if.end37:                                         ; preds = %if.then34, %if.end28
  %40 = load i32, ptr %l, align 4
  ret i32 %40
}