; Function Attrs: nounwind sspstrong uwtable
define internal fastcc range(i32 3, 5) i32 @usb_mouse_poll(ptr noundef %s, ptr noundef writeonly captures(none) initializes((0, 3)) %buf, i32 noundef %len) unnamed_addr #0 {
entry:
  %mouse_grabbed = getelementptr inbounds nuw i8, ptr %s, i64 5904
  %0 = load i32, ptr %mouse_grabbed, align 8
  %tobool.not = icmp eq i32 %0, 0
  br i1 %tobool.not, label %if.then, label %if.end

if.then:                                          ; preds = %entry
  %call = tail call ptr @qemu_add_mouse_event_handler(ptr noundef nonnull @usb_mouse_event, ptr noundef nonnull %s, i32 noundef 0, ptr noundef nonnull @.str.15) #7
  %eh_entry = getelementptr inbounds nuw i8, ptr %s, i64 5872
  store ptr %call, ptr %eh_entry, align 8
  tail call void @qemu_activate_mouse_event_handler(ptr noundef %call) #7
  store i32 1, ptr %mouse_grabbed, align 8
  br label %if.end

if.end:                                           ; preds = %if.then, %entry
  %dx3 = getelementptr inbounds nuw i8, ptr %s, i64 5880
  %1 = load i32, ptr %dx3, align 8
  %.val.i = tail call i32 @llvm.smin.i32(i32 %1, i32 127)
  %retval.0.i = tail call range(i32 -128, 128) i32 @llvm.smax.i32(i32 %.val.i, i32 -128)
  %dy5 = getelementptr inbounds nuw i8, ptr %s, i64 5884
  %2 = load i32, ptr %dy5, align 4
  %.val.i23 = tail call i32 @llvm.smin.i32(i32 %2, i32 127)
  %retval.0.i24 = tail call range(i32 -128, 128) i32 @llvm.smax.i32(i32 %.val.i23, i32 -128)
  %dz7 = getelementptr inbounds nuw i8, ptr %s, i64 5888
  %3 = load i32, ptr %dz7, align 8
  %.val.i25 = tail call i32 @llvm.smin.i32(i32 %3, i32 127)
  %retval.0.i26 = tail call range(i32 -128, 128) i32 @llvm.smax.i32(i32 %.val.i25, i32 -128)
  %sub = sub i32 %1, %retval.0.i
  store i32 %sub, ptr %dx3, align 8
  %sub11 = sub i32 %2, %retval.0.i24
  store i32 %sub11, ptr %dy5, align 4
  %sub13 = sub i32 %3, %retval.0.i26
  store i32 %sub13, ptr %dz7, align 8
  %buttons_state = getelementptr inbounds nuw i8, ptr %s, i64 5892
  %4 = load i32, ptr %buttons_state, align 4
  %5 = trunc i32 %4 to i8
  %conv = and i8 %5, 7
  store i8 %conv, ptr %buf, align 1
  %conv29 = trunc nsw i32 %retval.0.i to i8
  %arrayidx30 = getelementptr i8, ptr %buf, i64 1
  store i8 %conv29, ptr %arrayidx30, align 1
  %conv31 = trunc nsw i32 %retval.0.i24 to i8
  %arrayidx32 = getelementptr i8, ptr %buf, i64 2
  store i8 %conv31, ptr %arrayidx32, align 1
  %cmp = icmp sgt i32 %len, 3
  br i1 %cmp, label %if.then34, label %if.end37

if.then34:                                        ; preds = %if.end
  %conv35 = trunc nsw i32 %retval.0.i26 to i8
  %arrayidx36 = getelementptr i8, ptr %buf, i64 3
  store i8 %conv35, ptr %arrayidx36, align 1
  br label %if.end37

if.end37:                                         ; preds = %if.then34, %if.end
  %l.0 = phi i32 [ 4, %if.then34 ], [ 3, %if.end ]
  ret i32 %l.0
}